target datalayout = "e-m:e-p270:32:32-p271:32:32-p272:64:64-i64:64-i128:128-f80:128-n8:16:32:64-S128"
target triple = "x86_64-pc-linux-gnu"

%struct.BlockRefTableKey = type { %struct.RelFileLocator, i32 }
%struct.RelFileLocator = type { i32, i32, i32 }
%struct.BlockRefTableEntry = type { %struct.BlockRefTableKey, i32, i8, i32, ptr, ptr, ptr }

; Function Attrs: nounwind uwtable
define dso_local ptr @CreateBlockRefTableEntry(i64 %0, i32 %1, i32 noundef %2) #0 {
  %4 = alloca %struct.RelFileLocator, align 4
  %5 = alloca { i64, i32 }, align 4
  %6 = alloca i32, align 4
  %7 = alloca ptr, align 8
  %8 = getelementptr inbounds nuw { i64, i32 }, ptr %5, i32 0, i32 0
  store i64 %0, ptr %8, align 4
  %9 = getelementptr inbounds nuw { i64, i32 }, ptr %5, i32 0, i32 1
  store i32 %1, ptr %9, align 4
  call void @llvm.memcpy.p0.p0.i64(ptr align 4 %4, ptr align 4 %5, i64 12, i1 false)
  store i32 %2, ptr %6, align 4
  call void @llvm.lifetime.start.p0(i64 8, ptr %7) #10
  %10 = call ptr @palloc0(i64 noundef 56)
  store ptr %10, ptr %7, align 8
  %11 = load ptr, ptr %7, align 8
  %12 = getelementptr inbounds nuw %struct.BlockRefTableEntry, ptr %11, i32 0, i32 0
  %13 = getelementptr inbounds nuw %struct.BlockRefTableKey, ptr %12, i32 0, i32 0
  call void @llvm.memcpy.p0.p0.i64(ptr align 8 %13, ptr align 4 %4, i64 12, i1 false)
  %14 = load i32, ptr %6, align 4
  %15 = load ptr, ptr %7, align 8
  %16 = getelementptr inbounds nuw %struct.BlockRefTableEntry, ptr %15, i32 0, i32 0
  %17 = getelementptr inbounds nuw %struct.BlockRefTableKey, ptr %16, i32 0, i32 1
  store i32 %14, ptr %17, align 4
  %18 = load ptr, ptr %7, align 8
  %19 = getelementptr inbounds nuw %struct.BlockRefTableEntry, ptr %18, i32 0, i32 1
  store i32 -1, ptr %19, align 8
  %20 = load ptr, ptr %7, align 8
  call void @llvm.lifetime.end.p0(i64 8, ptr %7) #10
  ret ptr %20
}