; Function Attrs: nounwind uwtable
define dso_local noundef ptr @CreateBlockRefTableEntry(i64 %0, i32 %1, i32 noundef %2) local_unnamed_addr #0 {
  %4 = tail call ptr @palloc0(i64 noundef 56) #14
  store i64 %0, ptr %4, align 8
  %.sroa.25.0..sroa_idx = getelementptr inbounds nuw i8, ptr %4, i64 8
  store i32 %1, ptr %.sroa.25.0..sroa_idx, align 8
  %5 = getelementptr inbounds nuw i8, ptr %4, i64 12
  store i32 %2, ptr %5, align 4
  %6 = getelementptr inbounds nuw i8, ptr %4, i64 16
  store i32 -1, ptr %6, align 8
  ret ptr %4
}